; Function Attrs: nounwind uwtable
define nonnull ptr @lv_draw_layer_create(ptr noundef %0, i32 noundef %1, ptr noundef readonly captures(none) %2) local_unnamed_addr #1 {
  %4 = tail call ptr @lv_malloc_zeroed(i64 noundef 112) #11
  %.not = icmp eq ptr %4, null
  br i1 %.not, label %.preheader, label %lv_layer_init.exit.i

.preheader:                                       ; preds = %3, %.preheader
  br label %.preheader

lv_layer_init.exit.i:                             ; preds = %3
  tail call void @lv_memset(ptr noundef nonnull %4, i8 noundef zeroext 0, i64 noundef 112) #11
  %5 = getelementptr inbounds nuw i8, ptr %4, i64 60
  store i8 -1, ptr %5, align 4, !tbaa !107
  %6 = tail call ptr @lv_refr_get_disp_refreshing() #11
  %7 = getelementptr inbounds nuw i8, ptr %4, i64 80
  store ptr %0, ptr %7, align 8, !tbaa !93
  %8 = getelementptr inbounds nuw i8, ptr %4, i64 28
  tail call void @llvm.memcpy.p0.p0.i64(ptr noundef nonnull align 4 dereferenceable(16) %8, ptr noundef nonnull readonly align 4 dereferenceable(16) %2, i64 16, i1 false), !tbaa.struct !37
  %9 = getelementptr inbounds nuw i8, ptr %4, i64 8
  tail call void @llvm.memcpy.p0.p0.i64(ptr noundef nonnull align 8 dereferenceable(16) %9, ptr noundef nonnull readonly align 4 dereferenceable(16) %2, i64 16, i1 false), !tbaa.struct !37
  %10 = getelementptr inbounds nuw i8, ptr %4, i64 44
  tail call void @llvm.memcpy.p0.p0.i64(ptr noundef nonnull align 4 dereferenceable(16) %10, ptr noundef nonnull readonly align 4 dereferenceable(16) %2, i64 16, i1 false), !tbaa.struct !37
  %11 = getelementptr inbounds nuw i8, ptr %4, i64 24
  store i32 %1, ptr %11, align 8, !tbaa !108
  %12 = getelementptr inbounds nuw i8, ptr %6, i64 760
  %13 = load ptr, ptr %12, align 8, !tbaa !109
  %.not.i = icmp eq ptr %13, null
  br i1 %.not.i, label %15, label %14

14:                                               ; preds = %lv_layer_init.exit.i
  tail call void %13(ptr noundef nonnull %6, ptr noundef nonnull %4) #11
  br label %15

15:                                               ; preds = %14, %lv_layer_init.exit.i
  %16 = getelementptr inbounds nuw i8, ptr %6, i64 752
  %17 = load ptr, ptr %16, align 8, !tbaa !77
  %.not25.i = icmp eq ptr %17, null
  br i1 %.not25.i, label %22, label %.preheader.i

.preheader.i:                                     ; preds = %15, %.preheader.i
  %.0.i = phi ptr [ %19, %.preheader.i ], [ %17, %15 ]
  %18 = getelementptr inbounds nuw i8, ptr %.0.i, i64 88
  %19 = load ptr, ptr %18, align 8, !tbaa !85
  %.not26.i = icmp eq ptr %19, null
  br i1 %.not26.i, label %20, label %.preheader.i, !llvm.loop !110

20:                                               ; preds = %.preheader.i
  %21 = getelementptr inbounds nuw i8, ptr %.0.i, i64 88
  store ptr %4, ptr %21, align 8, !tbaa !85
  br label %lv_draw_layer_init.exit

22:                                               ; preds = %15
  store ptr %4, ptr %16, align 8, !tbaa !77
  br label %lv_draw_layer_init.exit

lv_draw_layer_init.exit:                          ; preds = %20, %22
  %.not12 = icmp eq ptr %0, null
  br i1 %.not12, label %26, label %23

23:                                               ; preds = %lv_draw_layer_init.exit
  %24 = getelementptr inbounds nuw i8, ptr %0, i64 60
  %25 = load i8, ptr %24, align 4, !tbaa !107
  store i8 %25, ptr %5, align 4, !tbaa !107
  br label %26

26:                                               ; preds = %lv_draw_layer_init.exit, %23
  ret ptr %4
}